

Microchip Technology PIC LITE Macro Assembler V1.33 build 59893 
                                                                                               Thu Mar 05 19:57:03 2015

Microchip Technology Omniscient Code Generator (Lite mode) build 59893
     1                           	processor	12F1822
     2                           	opt	pw 120
     3                           	opt	lm
     4                           	psect	maintext,global,class=CODE,merge=1,split=1,delta=2
     5                           	psect	cinit,global,class=CODE,merge=1,delta=2
     6                           	psect	cstackCOMMON,global,class=COMMON,space=1,delta=1
     7                           	dabs	1,0x7E,2
     8  0000                     	;# 
     9  0001                     	;# 
    10  0002                     	;# 
    11  0003                     	;# 
    12  0004                     	;# 
    13  0005                     	;# 
    14  0006                     	;# 
    15  0007                     	;# 
    16  0008                     	;# 
    17  0009                     	;# 
    18  000A                     	;# 
    19  000B                     	;# 
    20  000C                     	;# 
    21  0011                     	;# 
    22  0012                     	;# 
    23  0015                     	;# 
    24  0016                     	;# 
    25  0016                     	;# 
    26  0017                     	;# 
    27  0018                     	;# 
    28  0019                     	;# 
    29  001A                     	;# 
    30  001B                     	;# 
    31  001C                     	;# 
    32  001E                     	;# 
    33  001F                     	;# 
    34  008C                     	;# 
    35  0091                     	;# 
    36  0092                     	;# 
    37  0095                     	;# 
    38  0096                     	;# 
    39  0097                     	;# 
    40  0098                     	;# 
    41  0099                     	;# 
    42  009A                     	;# 
    43  009B                     	;# 
    44  009B                     	;# 
    45  009C                     	;# 
    46  009D                     	;# 
    47  009E                     	;# 
    48  010C                     	;# 
    49  0111                     	;# 
    50  0112                     	;# 
    51  0115                     	;# 
    52  0116                     	;# 
    53  0117                     	;# 
    54  0118                     	;# 
    55  0119                     	;# 
    56  011A                     	;# 
    57  011B                     	;# 
    58  011D                     	;# 
    59  011D                     	;# 
    60  018C                     	;# 
    61  0191                     	;# 
    62  0191                     	;# 
    63  0192                     	;# 
    64  0193                     	;# 
    65  0193                     	;# 
    66  0193                     	;# 
    67  0194                     	;# 
    68  0195                     	;# 
    69  0196                     	;# 
    70  0199                     	;# 
    71  019A                     	;# 
    72  019B                     	;# 
    73  019B                     	;# 
    74  019B                     	;# 
    75  019B                     	;# 
    76  019C                     	;# 
    77  019C                     	;# 
    78  019D                     	;# 
    79  019E                     	;# 
    80  019F                     	;# 
    81  020C                     	;# 
    82  0211                     	;# 
    83  0211                     	;# 
    84  0212                     	;# 
    85  0212                     	;# 
    86  0213                     	;# 
    87  0213                     	;# 
    88  0214                     	;# 
    89  0214                     	;# 
    90  0215                     	;# 
    91  0215                     	;# 
    92  0215                     	;# 
    93  0216                     	;# 
    94  0216                     	;# 
    95  0217                     	;# 
    96  0217                     	;# 
    97  0291                     	;# 
    98  0291                     	;# 
    99  0292                     	;# 
   100  0293                     	;# 
   101  0294                     	;# 
   102  0295                     	;# 
   103  0295                     	;# 
   104  0296                     	;# 
   105  0391                     	;# 
   106  0392                     	;# 
   107  0393                     	;# 
   108  039A                     	;# 
   109  039C                     	;# 
   110  039D                     	;# 
   111  039E                     	;# 
   112  039F                     	;# 
   113  0FE4                     	;# 
   114  0FE5                     	;# 
   115  0FE6                     	;# 
   116  0FE7                     	;# 
   117  0FE8                     	;# 
   118  0FE9                     	;# 
   119  0FEA                     	;# 
   120  0FEB                     	;# 
   121  0FED                     	;# 
   122  0FEE                     	;# 
   123  0FEF                     	;# 
   124  000C                     _PORTA	set	12
   125  0062                     _RA2	set	98
   126  0064                     _RA4	set	100
   127  0099                     _OSCCON	set	153
   128  008C                     _TRISA	set	140
   129  018C                     _ANSELAbits	set	396
   130                           
   131                           	psect	maintext
   132  07EA                     __pmaintext:	
   133                           ; #config settings
   134                           
   135                           
   136                           ;psect for function _main
   137  0000                     
   138                           ; 0 bytes @ 0x0
   139 ;;
   140 ;;Main: autosize = 0, tempsize = 0, incstack = 0, save=0
   141 ;;
   142 ;; *************** function _main *****************
   143 ;; Defined at:
   144 ;;		line 42 in file "main.c"
   145 ;; Parameters:    Size  Location     Type
   146 ;;		None
   147 ;; Auto vars:     Size  Location     Type
   148 ;;		None
   149 ;; Return value:  Size  Location     Type
   150 ;;		None               void
   151 ;; Registers used:
   152 ;;		wreg, status,2, status,0
   153 ;; Tracked objects:
   154 ;;		On entry : 17F/0
   155 ;;		On exit  : 0/0
   156 ;;		Unchanged: 0/0
   157 ;; Data sizes:     COMMON   BANK0   BANK1
   158 ;;      Params:         0       0       0
   159 ;;      Locals:         0       0       0
   160 ;;      Temps:          0       0       0
   161 ;;      Totals:         0       0       0
   162 ;;Total ram usage:        0 bytes
   163 ;; This function calls:
   164 ;;		Nothing
   165 ;; This function is called by:
   166 ;;		Startup code after reset
   167 ;; This function uses a non-reentrant model
   168 ;;
   169  07EA                     _main:	
   170                           
   171                           ;main.c: 44: OSCCON = 0b11110010;
   172                           
   173                           ;incstack = 0
   174                           ; Regs used in _main: [wreg+status,2+status,0]
   175  07EA  30F2               	movlw	242
   176  07EB  0021               	movlb	1	; select bank1
   177  07EC  0099               	movwf	25	;volatile
   178                           
   179                           ;main.c: 45: ANSELAbits.ANSELA = 0b00000000;
   180  07ED  30E0               	movlw	-32
   181  07EE  0023               	movlb	3	; select bank3
   182  07EF  058C               	andwf	12,f	;volatile
   183                           
   184                           ;main.c: 46: TRISA = 0b0111000;
   185  07F0  3038               	movlw	56
   186  07F1  0021               	movlb	1	; select bank1
   187  07F2  008C               	movwf	12	;volatile
   188                           
   189                           ;main.c: 47: PORTA = 0b00000000;
   190  07F3  0020               	movlb	0	; select bank0
   191  07F4  018C               	clrf	12	;volatile
   192  07F5  2FF7               	goto	l487
   193  07F6                     l489:	
   194                           
   195                           ;main.c: 53: RA2 = 0;
   196  07F6  110C               	bcf	12,2	;volatile
   197  07F7                     l487:	
   198                           ;main.c: 50: while (1) {
   199                           
   200                           ;main.c: 56: } else {
   201                           
   202                           ;main.c: 54: } else if (RA4 == 0) {
   203                           
   204                           
   205                           ;main.c: 52: if (RA4 == 1) {
   206  07F7  1A0C               	btfsc	12,4	;volatile
   207  07F8  2FF6               	goto	l489
   208  07F9  1E0C               	btfss	12,4	;volatile
   209  07FA  2FFB               	goto	l491
   210  07FB                     l491:	
   211                           
   212                           ;main.c: 55: RA2 = 1;
   213  07FB  150C               	bsf	12,2	;volatile
   214  07FC  2FF7               	goto	l487
   215  07FD                     __end_of_main:	
   216                           ;main.c: 57: RA2 = 1;
   217                           
   218  007E                     btemp	set	126	;btemp
   219  007E                     pic14e$flags	set	126
   220  007E                     wtemp	set	126
   221  007E                     wtemp0	set	126
   222  0080                     wtemp1	set	128
   223  0082                     wtemp2	set	130
   224  0084                     wtemp3	set	132
   225  0086                     wtemp4	set	134
   226  0088                     wtemp5	set	136
   227  007F                     wtemp6	set	127
   228  007E                     ttemp	set	126
   229  007E                     ttemp0	set	126
   230  0081                     ttemp1	set	129
   231  0084                     ttemp2	set	132
   232  0087                     ttemp3	set	135
   233  007F                     ttemp4	set	127
   234  007E                     ltemp	set	126
   235  007E                     ltemp0	set	126
   236  0082                     ltemp1	set	130
   237  0086                     ltemp2	set	134
   238  0080                     ltemp3	set	128
   239                           
   240                           	psect	cinit
   241  07FD                     start_initialization:	
   242  07FD                     __initialization:	
   243  07FD                     end_of_initialization:	
   244                           ;End of C runtime variable initialization code
   245                           
   246  07FD                     __end_of__initialization:	
   247  07FD  107E               	bcf	pic14e$flags,0	;clear compiler interrupt flag
   248  07FE  0020               	movlb	0
   249  07FF  2FEA               	ljmp	_main	;jump to C main() function
   250                           
   251                           	psect	cstackCOMMON
   252  0000                     __pcstackCOMMON:	
   253  0000                     ?_main:	
   254  0000                     ??_main:	
   255                           ; 0 bytes @ 0x0
   256                           


Data Sizes:
    Strings     0
    Constant    0
    Data        0
    BSS         0
    Persistent  0
    Stack       0

Auto Spaces:
    Space          Size  Autos    Used
    COMMON           14      0       0
    BANK0            80      0       0
    BANK1            32      0       0

Pointer List with Targets:

    None.

Critical Paths under _main in COMMON

    None.

Critical Paths under _main in BANK0

    None.

Critical Paths under _main in BANK1

    None.

Call Graph Tables:

 ---------------------------------------------------------------------------------
 (Depth) Function   	        Calls       Base Space   Used Autos Params    Refs
 ---------------------------------------------------------------------------------
 (0) _main                                                 0     0      0       0
 ---------------------------------------------------------------------------------
 Estimated maximum stack depth 0
 ---------------------------------------------------------------------------------

 Call Graph Graphs:

 _main (ROOT)

 Address spaces:
Name               Size   Autos  Total    Cost      Usage
BIGRAM              70      0       0       0        0.0%
EEDATA             100      0       0       0        0.0%
NULL                 0      0       0       0        0.0%
CODE                 0      0       0       0        0.0%
BITCOMMON            E      0       0       1        0.0%
BITSFR0              0      0       0       1        0.0%
SFR0                 0      0       0       1        0.0%
COMMON               E      0       0       2        0.0%
BITSFR1              0      0       0       2        0.0%
SFR1                 0      0       0       2        0.0%
BITSFR2              0      0       0       3        0.0%
SFR2                 0      0       0       3        0.0%
STACK                0      0       0       3        0.0%
BITSFR3              0      0       0       4        0.0%
SFR3                 0      0       0       4        0.0%
ABS                  0      0       0       4        0.0%
BITBANK0            50      0       0       5        0.0%
BITSFR4              0      0       0       5        0.0%
SFR4                 0      0       0       5        0.0%
BANK0               50      0       0       6        0.0%
BITSFR5              0      0       0       6        0.0%
SFR5                 0      0       0       6        0.0%
BITBANK1            20      0       0       7        0.0%
BITSFR6              0      0       0       7        0.0%
SFR6                 0      0       0       7        0.0%
BANK1               20      0       0       8        0.0%
BITSFR7              0      0       0       8        0.0%
SFR7                 0      0       0       8        0.0%
BITSFR8              0      0       0       9        0.0%
SFR8                 0      0       0       9        0.0%
DATA                 0      0       0       9        0.0%
BITSFR9              0      0       0      10        0.0%
SFR9                 0      0       0      10        0.0%
BITSFR10             0      0       0      11        0.0%
SFR10                0      0       0      11        0.0%
BITSFR11             0      0       0      12        0.0%
SFR11                0      0       0      12        0.0%
BITSFR12             0      0       0      13        0.0%
SFR12                0      0       0      13        0.0%
BITSFR13             0      0       0      14        0.0%
SFR13                0      0       0      14        0.0%
BITSFR14             0      0       0      15        0.0%
SFR14                0      0       0      15        0.0%
BITSFR15             0      0       0      16        0.0%
SFR15                0      0       0      16        0.0%
BITSFR16             0      0       0      17        0.0%
SFR16                0      0       0      17        0.0%
BITSFR17             0      0       0      18        0.0%
SFR17                0      0       0      18        0.0%
BITSFR18             0      0       0      19        0.0%
SFR18                0      0       0      19        0.0%
BITSFR19             0      0       0      20        0.0%
SFR19                0      0       0      20        0.0%
BITSFR20             0      0       0      21        0.0%
SFR20                0      0       0      21        0.0%
BITSFR21             0      0       0      22        0.0%
SFR21                0      0       0      22        0.0%
BITSFR22             0      0       0      23        0.0%
SFR22                0      0       0      23        0.0%
BITSFR23             0      0       0      24        0.0%
SFR23                0      0       0      24        0.0%
BITSFR24             0      0       0      25        0.0%
SFR24                0      0       0      25        0.0%
BITSFR25             0      0       0      26        0.0%
SFR25                0      0       0      26        0.0%
BITSFR26             0      0       0      27        0.0%
SFR26                0      0       0      27        0.0%
BITSFR27             0      0       0      28        0.0%
SFR27                0      0       0      28        0.0%
BITSFR28             0      0       0      29        0.0%
SFR28                0      0       0      29        0.0%
BITSFR29             0      0       0      30        0.0%
SFR29                0      0       0      30        0.0%
BITSFR30             0      0       0      31        0.0%
SFR30                0      0       0      31        0.0%
BITSFR31             0      0       0      32        0.0%
SFR31                0      0       0      32        0.0%


Microchip Technology PIC Macro Assembler V1.33 build 59893 
Symbol Table                                                                                   Thu Mar 05 19:57:03 2015

            __CFG_CP$OFF 0000                      l491 07FB                      l487 07F7  
                    l489 07F6                      _RA2 0062                      _RA4 0064  
           __CFG_CPD$OFF 0000             __CFG_BORV$HI 0000             __CFG_LVP$OFF 0000  
           __CFG_WRT$OFF 0000                     _main 07EA                     btemp 007E  
          __CFG_BOREN$ON 0000                     ltemp 007E                     start 0001  
                   ttemp 007E                     wtemp 007E            __CFG_IESO$OFF 0000  
          __CFG_MCLRE$ON 0000                    ?_main 0000            __CFG_WDTE$OFF 0000  
                  _PORTA 000C                    _TRISA 008C            __CFG_PWRTE$ON 0000  
         __CFG_FCMEN$OFF 0000                    ltemp0 007E                    ltemp1 0082  
                  ltemp2 0086                    ltemp3 0080                    ttemp0 007E  
                  ttemp1 0081                    ttemp2 0084                    ttemp3 0087  
                  ttemp4 007F                    wtemp0 007E                    wtemp1 0080  
                  wtemp2 0082                    wtemp3 0084                    wtemp4 0086  
                  wtemp5 0088                    wtemp6 007F          __initialization 07FD  
           __end_of_main 07FD                   ??_main 0000           __CFG_PLLEN$OFF 0000  
                 _OSCCON 0099           __CFG_STVREN$ON 0000  __end_of__initialization 07FD  
         __pcstackCOMMON 0000               __pmaintext 07EA     end_of_initialization 07FD  
       __CFG_FOSC$INTOSC 0000      start_initialization 07FD                ___latbits 0000  
             _ANSELAbits 018C            __size_of_main 0013              pic14e$flags 007E  
      __CFG_CLKOUTEN$OFF 0000  
